target datalayout = "e-m:e-p270:32:32-p271:32:32-p272:64:64-i64:64-i128:128-f80:128-n8:16:32:64-S128"
target triple = "x86_64-pc-linux-gnu"

%"class.duckdb_re2::StringPiece" = type { ptr, i64 }
%"class.duckdb_re2::RegexpStatus" = type { i32, %"class.duckdb_re2::StringPiece", ptr }

; Function Attrs: mustprogress nounwind uwtable
define linkonce_odr hidden void @_ZN10duckdb_re212RegexpStatus13set_error_argERKNS_11StringPieceE(ptr noundef nonnull align 8 dereferenceable(32) %0, ptr noundef nonnull align 8 dereferenceable(16) %1) #0 comdat align 2 {
  %3 = alloca ptr, align 8
  %4 = alloca ptr, align 8
  store ptr %0, ptr %3, align 8, !tbaa !14
  store ptr %1, ptr %4, align 8, !tbaa !12
  %5 = load ptr, ptr %3, align 8
  %6 = load ptr, ptr %4, align 8, !tbaa !12
  %7 = getelementptr inbounds nuw %"class.duckdb_re2::RegexpStatus", ptr %5, i32 0, i32 1
  call void @llvm.memcpy.p0.p0.i64(ptr align 8 %7, ptr align 8 %6, i64 16, i1 false), !tbaa.struct !22
  ret void
}

; Function Attrs: mustprogress nounwind uwtable
define linkonce_odr hidden void @_ZN10duckdb_re211StringPieceC2Ev(ptr noundef nonnull align 8 dereferenceable(16) %0) unnamed_addr #0 comdat align 2 {
  %2 = alloca ptr, align 8
  store ptr %0, ptr %2, align 8, !tbaa !12
  %3 = load ptr, ptr %2, align 8
  %4 = getelementptr inbounds nuw %"class.duckdb_re2::StringPiece", ptr %3, i32 0, i32 0
  store ptr null, ptr %4, align 8, !tbaa !116
  %5 = getelementptr inbounds nuw %"class.duckdb_re2::StringPiece", ptr %3, i32 0, i32 1
  store i64 0, ptr %5, align 8, !tbaa !117
  ret void
}

; Function Attrs: mustprogress nounwind uwtable
define linkonce_odr hidden void @_ZN10duckdb_re212RegexpStatus8set_codeENS_16RegexpStatusCodeE(ptr noundef nonnull align 8 dereferenceable(32) %0, i32 noundef %1) #0 comdat align 2 {
  %3 = alloca ptr, align 8
  %4 = alloca i32, align 4
  store ptr %0, ptr %3, align 8, !tbaa !14
  store i32 %1, ptr %4, align 4, !tbaa !75
  %5 = load ptr, ptr %3, align 8
  %6 = load i32, ptr %4, align 4, !tbaa !75
  %7 = getelementptr inbounds nuw %"class.duckdb_re2::RegexpStatus", ptr %5, i32 0, i32 0
  store i32 %6, ptr %7, align 8, !tbaa !77
  ret void
}

; Function Attrs: mustprogress nounwind uwtable
define linkonce_odr hidden void @_ZN10duckdb_re211StringPiece13remove_prefixEm(ptr noundef nonnull align 8 dereferenceable(16) %0, i64 noundef %1) #0 comdat align 2 {
  %3 = alloca ptr, align 8
  %4 = alloca i64, align 8
  store ptr %0, ptr %3, align 8, !tbaa !12
  store i64 %1, ptr %4, align 8, !tbaa !24
  %5 = load ptr, ptr %3, align 8
  %6 = load i64, ptr %4, align 8, !tbaa !24
  %7 = getelementptr inbounds nuw %"class.duckdb_re2::StringPiece", ptr %5, i32 0, i32 0
  %8 = load ptr, ptr %7, align 8, !tbaa !116
  %9 = getelementptr inbounds nuw i8, ptr %8, i64 %6
  store ptr %9, ptr %7, align 8, !tbaa !116
  %10 = load i64, ptr %4, align 8, !tbaa !24
  %11 = getelementptr inbounds nuw %"class.duckdb_re2::StringPiece", ptr %5, i32 0, i32 1
  %12 = load i64, ptr %11, align 8, !tbaa !117
  %13 = sub i64 %12, %10
  store i64 %13, ptr %11, align 8, !tbaa !117
  ret void
}

; Function Attrs: inlinehint mustprogress nounwind uwtable
define linkonce_odr noundef nonnull align 8 dereferenceable(8) ptr @_ZSt3minImERKT_S2_S2_(ptr noundef nonnull align 8 dereferenceable(8) %0, ptr noundef nonnull align 8 dereferenceable(8) %1) #3 comdat {
  %3 = alloca ptr, align 8
  %4 = alloca ptr, align 8
  %5 = alloca ptr, align 8
  store ptr %0, ptr %4, align 8, !tbaa !292
  store ptr %1, ptr %5, align 8, !tbaa !292
  %6 = load ptr, ptr %5, align 8, !tbaa !292
  %7 = load i64, ptr %6, align 8, !tbaa !24
  %8 = load ptr, ptr %4, align 8, !tbaa !292
  %9 = load i64, ptr %8, align 8, !tbaa !24
  %10 = icmp ult i64 %7, %9
  br i1 %10, label %11, label %13

11:                                               ; preds = %2
  %12 = load ptr, ptr %5, align 8, !tbaa !292
  store ptr %12, ptr %3, align 8
  br label %15

13:                                               ; preds = %2
  %14 = load ptr, ptr %4, align 8, !tbaa !292
  store ptr %14, ptr %3, align 8
  br label %15

15:                                               ; preds = %13, %11
  %16 = load ptr, ptr %3, align 8
  ret ptr %16
}

; Function Attrs: mustprogress nounwind uwtable
define linkonce_odr hidden noundef i64 @_ZNK10duckdb_re211StringPiece4sizeEv(ptr noundef nonnull align 8 dereferenceable(16) %0) #0 comdat align 2 {
  %2 = alloca ptr, align 8
  store ptr %0, ptr %2, align 8, !tbaa !12
  %3 = load ptr, ptr %2, align 8
  %4 = getelementptr inbounds nuw %"class.duckdb_re2::StringPiece", ptr %3, i32 0, i32 1
  %5 = load i64, ptr %4, align 8, !tbaa !117
  ret i64 %5
}

; Function Attrs: mustprogress nounwind uwtable
define linkonce_odr hidden noundef ptr @_ZNK10duckdb_re211StringPiece4dataEv(ptr noundef nonnull align 8 dereferenceable(16) %0) #0 comdat align 2 {
  %2 = alloca ptr, align 8
  store ptr %0, ptr %2, align 8, !tbaa !12
  %3 = load ptr, ptr %2, align 8
  %4 = getelementptr inbounds nuw %"class.duckdb_re2::StringPiece", ptr %3, i32 0, i32 0
  %5 = load ptr, ptr %4, align 8, !tbaa !116
  ret ptr %5
}

; Function Attrs: mustprogress uwtable
define internal noundef i32 @_ZN10duckdb_re2L17StringPieceToRuneEPiPNS_11StringPieceEPNS_12RegexpStatusE(ptr noundef %0, ptr noundef %1, ptr noundef %2) #1 {
  %4 = alloca i32, align 4
  %5 = alloca ptr, align 8
  %6 = alloca ptr, align 8
  %7 = alloca ptr, align 8
  %8 = alloca i64, align 8
  %9 = alloca i64, align 8
  %10 = alloca i32, align 4
  %11 = alloca i32, align 4
  %12 = alloca %"class.duckdb_re2::StringPiece", align 8
  store ptr %0, ptr %5, align 8, !tbaa !84
  store ptr %1, ptr %6, align 8, !tbaa !12
  store ptr %2, ptr %7, align 8, !tbaa !14
  %13 = load ptr, ptr %6, align 8, !tbaa !12
  %14 = call noundef ptr @_ZNK10duckdb_re211StringPiece4dataEv(ptr noundef nonnull align 8 dereferenceable(16) %13)
  call void @llvm.lifetime.start.p0(i64 8, ptr %8) #19
  store i64 4, ptr %8, align 8, !tbaa !24
  call void @llvm.lifetime.start.p0(i64 8, ptr %9) #19
  %15 = load ptr, ptr %6, align 8, !tbaa !12
  %16 = call noundef i64 @_ZNK10duckdb_re211StringPiece4sizeEv(ptr noundef nonnull align 8 dereferenceable(16) %15)
  store i64 %16, ptr %9, align 8, !tbaa !24
  %17 = call noundef nonnull align 8 dereferenceable(8) ptr @_ZSt3minImERKT_S2_S2_(ptr noundef nonnull align 8 dereferenceable(8) %8, ptr noundef nonnull align 8 dereferenceable(8) %9)
  %18 = load i64, ptr %17, align 8, !tbaa !24
  %19 = trunc i64 %18 to i32
  %20 = call noundef i32 @_ZN10duckdb_re28fullruneEPKci(ptr noundef %14, i32 noundef %19)
  %21 = icmp ne i32 %20, 0
  call void @llvm.lifetime.end.p0(i64 8, ptr %9) #19
  call void @llvm.lifetime.end.p0(i64 8, ptr %8) #19
  br i1 %21, label %22, label %48

22:                                               ; preds = %3
  call void @llvm.lifetime.start.p0(i64 4, ptr %10) #19
  %23 = load ptr, ptr %5, align 8, !tbaa !84
  %24 = load ptr, ptr %6, align 8, !tbaa !12
  %25 = call noundef ptr @_ZNK10duckdb_re211StringPiece4dataEv(ptr noundef nonnull align 8 dereferenceable(16) %24)
  %26 = call noundef i32 @_ZN10duckdb_re210chartoruneEPiPKc(ptr noundef %23, ptr noundef %25)
  store i32 %26, ptr %10, align 4, !tbaa !3
  %27 = load ptr, ptr %5, align 8, !tbaa !84
  %28 = load i32, ptr %27, align 4, !tbaa !3
  %29 = icmp sgt i32 %28, 1114111
  br i1 %29, label %30, label %32

30:                                               ; preds = %22
  store i32 1, ptr %10, align 4, !tbaa !3
  %31 = load ptr, ptr %5, align 8, !tbaa !84
  store i32 65533, ptr %31, align 4, !tbaa !3
  br label %32

32:                                               ; preds = %30, %22
  %33 = load i32, ptr %10, align 4, !tbaa !3
  %34 = icmp eq i32 %33, 1
  br i1 %34, label %35, label %39

35:                                               ; preds = %32
  %36 = load ptr, ptr %5, align 8, !tbaa !84
  %37 = load i32, ptr %36, align 4, !tbaa !3
  %38 = icmp eq i32 %37, 65533
  br i1 %38, label %44, label %39

39:                                               ; preds = %35, %32
  %40 = load ptr, ptr %6, align 8, !tbaa !12
  %41 = load i32, ptr %10, align 4, !tbaa !3
  %42 = sext i32 %41 to i64
  call void @_ZN10duckdb_re211StringPiece13remove_prefixEm(ptr noundef nonnull align 8 dereferenceable(16) %40, i64 noundef %42)
  %43 = load i32, ptr %10, align 4, !tbaa !3
  store i32 %43, ptr %4, align 4
  store i32 1, ptr %11, align 4
  br label %45

44:                                               ; preds = %35
  store i32 0, ptr %11, align 4
  br label %45

45:                                               ; preds = %44, %39
  call void @llvm.lifetime.end.p0(i64 4, ptr %10) #19
  %46 = load i32, ptr %11, align 4
  switch i32 %46, label %57 [
    i32 0, label %47
    i32 1, label %55
  ]

47:                                               ; preds = %45
  br label %48

48:                                               ; preds = %47, %3
  %49 = load ptr, ptr %7, align 8, !tbaa !14
  %50 = icmp ne ptr %49, null
  br i1 %50, label %51, label %54

51:                                               ; preds = %48
  %52 = load ptr, ptr %7, align 8, !tbaa !14
  call void @_ZN10duckdb_re212RegexpStatus8set_codeENS_16RegexpStatusCodeE(ptr noundef nonnull align 8 dereferenceable(32) %52, i32 noundef 13)
  %53 = load ptr, ptr %7, align 8, !tbaa !14
  call void @llvm.lifetime.start.p0(i64 16, ptr %12) #19
  call void @_ZN10duckdb_re211StringPieceC2Ev(ptr noundef nonnull align 8 dereferenceable(16) %12)
  call void @_ZN10duckdb_re212RegexpStatus13set_error_argERKNS_11StringPieceE(ptr noundef nonnull align 8 dereferenceable(32) %53, ptr noundef nonnull align 8 dereferenceable(16) %12)
  call void @llvm.lifetime.end.p0(i64 16, ptr %12) #19
  br label %54

54:                                               ; preds = %51, %48
  store i32 -1, ptr %4, align 4
  br label %55

55:                                               ; preds = %54, %45
  %56 = load i32, ptr %4, align 4
  ret i32 %56

57:                                               ; preds = %45
  unreachable
}