; Function Attrs: mustprogress uwtable
define internal fastcc noundef i32 @_ZN10duckdb_re2L17StringPieceToRuneEPiPNS_11StringPieceEPNS_12RegexpStatusE(ptr noundef %0, ptr noundef captures(none) %1, ptr noundef writeonly captures(address_is_null) %2) unnamed_addr #9 {
  %4 = load ptr, ptr %1, align 8, !tbaa !93
  %5 = getelementptr inbounds nuw i8, ptr %1, i64 8
  %6 = load i64, ptr %5, align 8, !tbaa !97
  %.sroa.speculated = tail call i64 @llvm.umin.i64(i64 %6, i64 4)
  %7 = trunc nuw nsw i64 %.sroa.speculated to i32
  %8 = tail call noundef i32 @_ZN10duckdb_re28fullruneEPKci(ptr noundef %4, i32 noundef %7)
  %.not = icmp eq i32 %8, 0
  br i1 %.not, label %.thread28, label %9

9:                                                ; preds = %3
  %10 = load ptr, ptr %1, align 8, !tbaa !93
  %11 = tail call noundef i32 @_ZN10duckdb_re210chartoruneEPiPKc(ptr noundef %0, ptr noundef %10)
  %12 = load i32, ptr %0, align 4, !tbaa !3
  %13 = icmp sgt i32 %12, 1114111
  br i1 %13, label %.thread26, label %14

.thread26:                                        ; preds = %9
  store i32 65533, ptr %0, align 4, !tbaa !3
  br label %.thread28

14:                                               ; preds = %9
  %15 = icmp eq i32 %11, 1
  %16 = icmp eq i32 %12, 65533
  %or.cond = and i1 %15, %16
  br i1 %or.cond, label %.thread28, label %17

17:                                               ; preds = %14
  %18 = sext i32 %11 to i64
  %19 = load ptr, ptr %1, align 8, !tbaa !93
  %20 = getelementptr inbounds nuw i8, ptr %19, i64 %18
  store ptr %20, ptr %1, align 8, !tbaa !93
  %21 = load i64, ptr %5, align 8, !tbaa !97
  %22 = sub i64 %21, %18
  store i64 %22, ptr %5, align 8, !tbaa !97
  br label %25

.thread28:                                        ; preds = %14, %.thread26, %3
  %.not18 = icmp eq ptr %2, null
  br i1 %.not18, label %25, label %23

23:                                               ; preds = %.thread28
  store i32 13, ptr %2, align 8, !tbaa !58
  %24 = getelementptr inbounds nuw i8, ptr %2, i64 8
  tail call void @llvm.memset.p0.i64(ptr noundef nonnull align 8 dereferenceable(16) %24, i8 0, i64 16, i1 false)
  br label %25

25:                                               ; preds = %17, %.thread28, %23
  %.1 = phi i32 [ %11, %17 ], [ -1, %23 ], [ -1, %.thread28 ]
  ret i32 %.1
}